target datalayout = "e-m:e-p270:32:32-p271:32:32-p272:64:64-i64:64-i128:128-f80:128-n8:16:32:64-S128"
target triple = "x86_64-pc-linux-gnu"

%"struct.std::pair" = type { i64, i64 }

; Function Attrs: mustprogress nounwind uwtable
define linkonce_odr void @_ZNSt4pairImmEC2IRmS2_TnNSt9enable_ifIXaaclsr5_PCCPE22_MoveConstructiblePairIT_T0_EEclsr5_PCCPE30_ImplicitlyMoveConvertiblePairIS4_S5_EEEbE4typeELb1EEEOS4_OS5_(ptr noundef nonnull align 8 dereferenceable(16) %0, ptr noundef nonnull align 8 dereferenceable(8) %1, ptr noundef nonnull align 8 dereferenceable(8) %2) unnamed_addr #4 comdat align 2 {
  %4 = alloca ptr, align 8
  %5 = alloca ptr, align 8
  %6 = alloca ptr, align 8
  store ptr %0, ptr %4, align 8, !tbaa !24
  store ptr %1, ptr %5, align 8, !tbaa !28
  store ptr %2, ptr %6, align 8, !tbaa !28
  %7 = load ptr, ptr %4, align 8
  %8 = getelementptr inbounds nuw %"struct.std::pair", ptr %7, i32 0, i32 0
  %9 = load ptr, ptr %5, align 8, !tbaa !28
  %10 = load i64, ptr %9, align 8, !tbaa !12
  store i64 %10, ptr %8, align 8, !tbaa !16
  %11 = getelementptr inbounds nuw %"struct.std::pair", ptr %7, i32 0, i32 1
  %12 = load ptr, ptr %6, align 8, !tbaa !28
  %13 = load i64, ptr %12, align 8, !tbaa !12
  store i64 %13, ptr %11, align 8, !tbaa !18
  ret void
}

; Function Attrs: inlinehint mustprogress uwtable
define linkonce_odr { i64, i64 } @_ZN5folly8external8farmhash7Uint128Emm(i64 noundef %0, i64 noundef %1) #2 comdat {
  %3 = alloca %"struct.std::pair", align 8
  %4 = alloca i64, align 8
  %5 = alloca i64, align 8
  store i64 %0, ptr %4, align 8, !tbaa !12
  store i64 %1, ptr %5, align 8, !tbaa !12
  call void @_ZNSt4pairImmEC2IRmS2_TnNSt9enable_ifIXaaclsr5_PCCPE22_MoveConstructiblePairIT_T0_EEclsr5_PCCPE30_ImplicitlyMoveConvertiblePairIS4_S5_EEEbE4typeELb1EEEOS4_OS5_(ptr noundef nonnull align 8 dereferenceable(16) %3, ptr noundef nonnull align 8 dereferenceable(8) %4, ptr noundef nonnull align 8 dereferenceable(8) %5)
  %6 = load { i64, i64 }, ptr %3, align 8
  ret { i64, i64 } %6
}

; Function Attrs: inlinehint mustprogress nounwind uwtable
define internal noundef i64 @_ZN5folly8external8farmhashL7Fetch64EPKc(ptr noundef %0) #3 {
  %2 = alloca ptr, align 8
  %3 = alloca i64, align 8
  store ptr %0, ptr %2, align 8, !tbaa !7
  call void @llvm.lifetime.start.p0(i64 8, ptr %3) #8
  %4 = load ptr, ptr %2, align 8, !tbaa !7
  call void @llvm.memcpy.p0.p0.i64(ptr align 8 %3, ptr align 1 %4, i64 8, i1 false)
  %5 = load i64, ptr %3, align 8, !tbaa !12
  call void @llvm.lifetime.end.p0(i64 8, ptr %3) #8
  ret i64 %5
}

; Function Attrs: inlinehint mustprogress uwtable
define internal { i64, i64 } @_ZN5folly8external8farmhash10farmhashccL11CityHash128EPKcm(ptr noundef %0, i64 noundef %1) #2 {
  %3 = alloca %"struct.std::pair", align 8
  %4 = alloca ptr, align 8
  %5 = alloca i64, align 8
  %6 = alloca %"struct.std::pair", align 8
  %7 = alloca %"struct.std::pair", align 8
  store ptr %0, ptr %4, align 8, !tbaa !7
  store i64 %1, ptr %5, align 8, !tbaa !12
  %8 = load i64, ptr %5, align 8, !tbaa !12
  %9 = icmp uge i64 %8, 16
  br i1 %9, label %10, label %35

10:                                               ; preds = %2
  %11 = load ptr, ptr %4, align 8, !tbaa !7
  %12 = getelementptr inbounds i8, ptr %11, i64 16
  %13 = load i64, ptr %5, align 8, !tbaa !12
  %14 = sub i64 %13, 16
  %15 = load ptr, ptr %4, align 8, !tbaa !7
  %16 = call noundef i64 @_ZN5folly8external8farmhashL7Fetch64EPKc(ptr noundef %15)
  %17 = load ptr, ptr %4, align 8, !tbaa !7
  %18 = getelementptr inbounds i8, ptr %17, i64 8
  %19 = call noundef i64 @_ZN5folly8external8farmhashL7Fetch64EPKc(ptr noundef %18)
  %20 = add i64 %19, -4348849565147123417
  %21 = call { i64, i64 } @_ZN5folly8external8farmhash7Uint128Emm(i64 noundef %16, i64 noundef %20)
  %22 = getelementptr inbounds nuw { i64, i64 }, ptr %6, i32 0, i32 0
  %23 = extractvalue { i64, i64 } %21, 0
  store i64 %23, ptr %22, align 8
  %24 = getelementptr inbounds nuw { i64, i64 }, ptr %6, i32 0, i32 1
  %25 = extractvalue { i64, i64 } %21, 1
  store i64 %25, ptr %24, align 8
  %26 = getelementptr inbounds nuw { i64, i64 }, ptr %6, i32 0, i32 0
  %27 = load i64, ptr %26, align 8
  %28 = getelementptr inbounds nuw { i64, i64 }, ptr %6, i32 0, i32 1
  %29 = load i64, ptr %28, align 8
  %30 = call { i64, i64 } @_ZN5folly8external8farmhash10farmhashcc19CityHash128WithSeedEPKcmSt4pairImmE(ptr noundef %12, i64 noundef %14, i64 %27, i64 %29)
  %31 = getelementptr inbounds nuw { i64, i64 }, ptr %3, i32 0, i32 0
  %32 = extractvalue { i64, i64 } %30, 0
  store i64 %32, ptr %31, align 8
  %33 = getelementptr inbounds nuw { i64, i64 }, ptr %3, i32 0, i32 1
  %34 = extractvalue { i64, i64 } %30, 1
  store i64 %34, ptr %33, align 8
  br label %52

35:                                               ; preds = %2
  %36 = load ptr, ptr %4, align 8, !tbaa !7
  %37 = load i64, ptr %5, align 8, !tbaa !12
  %38 = call { i64, i64 } @_ZN5folly8external8farmhash7Uint128Emm(i64 noundef -4348849565147123417, i64 noundef -5435081209227447693)
  %39 = getelementptr inbounds nuw { i64, i64 }, ptr %7, i32 0, i32 0
  %40 = extractvalue { i64, i64 } %38, 0
  store i64 %40, ptr %39, align 8
  %41 = getelementptr inbounds nuw { i64, i64 }, ptr %7, i32 0, i32 1
  %42 = extractvalue { i64, i64 } %38, 1
  store i64 %42, ptr %41, align 8
  %43 = getelementptr inbounds nuw { i64, i64 }, ptr %7, i32 0, i32 0
  %44 = load i64, ptr %43, align 8
  %45 = getelementptr inbounds nuw { i64, i64 }, ptr %7, i32 0, i32 1
  %46 = load i64, ptr %45, align 8
  %47 = call { i64, i64 } @_ZN5folly8external8farmhash10farmhashcc19CityHash128WithSeedEPKcmSt4pairImmE(ptr noundef %36, i64 noundef %37, i64 %44, i64 %46)
  %48 = getelementptr inbounds nuw { i64, i64 }, ptr %3, i32 0, i32 0
  %49 = extractvalue { i64, i64 } %47, 0
  store i64 %49, ptr %48, align 8
  %50 = getelementptr inbounds nuw { i64, i64 }, ptr %3, i32 0, i32 1
  %51 = extractvalue { i64, i64 } %47, 1
  store i64 %51, ptr %50, align 8
  br label %52

52:                                               ; preds = %35, %10
  %53 = load { i64, i64 }, ptr %3, align 8
  ret { i64, i64 } %53
}

; Function Attrs: mustprogress nounwind uwtable
define internal { i64, i64 } @_ZN5folly8external8farmhashL10DebugTweakISt4pairImmEEET_S5_(i64 %0, i64 %1) #4 {
  %3 = alloca %"struct.std::pair", align 8
  %4 = alloca %"struct.std::pair", align 8
  %5 = getelementptr inbounds nuw { i64, i64 }, ptr %4, i32 0, i32 0
  store i64 %0, ptr %5, align 8
  %6 = getelementptr inbounds nuw { i64, i64 }, ptr %4, i32 0, i32 1
  store i64 %1, ptr %6, align 8
  call void @llvm.memcpy.p0.p0.i64(ptr align 8 %3, ptr align 8 %4, i64 16, i1 false)
  %7 = load { i64, i64 }, ptr %3, align 8
  ret { i64, i64 } %7
}

; Function Attrs: mustprogress uwtable
define { i64, i64 } @_ZN5folly8external8farmhash10farmhashcc14Fingerprint128EPKcm(ptr noundef %0, i64 noundef %1) #0 {
  %3 = alloca %"struct.std::pair", align 8
  %4 = alloca ptr, align 8
  %5 = alloca i64, align 8
  store ptr %0, ptr %4, align 8, !tbaa !7
  store i64 %1, ptr %5, align 8, !tbaa !12
  %6 = load ptr, ptr %4, align 8, !tbaa !7
  %7 = load i64, ptr %5, align 8, !tbaa !12
  %8 = call { i64, i64 } @_ZN5folly8external8farmhash10farmhashccL11CityHash128EPKcm(ptr noundef %6, i64 noundef %7)
  %9 = getelementptr inbounds nuw { i64, i64 }, ptr %3, i32 0, i32 0
  %10 = extractvalue { i64, i64 } %8, 0
  store i64 %10, ptr %9, align 8
  %11 = getelementptr inbounds nuw { i64, i64 }, ptr %3, i32 0, i32 1
  %12 = extractvalue { i64, i64 } %8, 1
  store i64 %12, ptr %11, align 8
  %13 = load { i64, i64 }, ptr %3, align 8
  ret { i64, i64 } %13
}

; Function Attrs: mustprogress uwtable
define { i64, i64 } @_ZN5folly8external8farmhash7Hash128EPKcm(ptr noundef %0, i64 noundef %1) #0 {
  %3 = alloca %"struct.std::pair", align 8
  %4 = alloca ptr, align 8
  %5 = alloca i64, align 8
  %6 = alloca %"struct.std::pair", align 8
  store ptr %0, ptr %4, align 8, !tbaa !7
  store i64 %1, ptr %5, align 8, !tbaa !12
  %7 = load ptr, ptr %4, align 8, !tbaa !7
  %8 = load i64, ptr %5, align 8, !tbaa !12
  %9 = call { i64, i64 } @_ZN5folly8external8farmhash10farmhashcc14Fingerprint128EPKcm(ptr noundef %7, i64 noundef %8)
  %10 = getelementptr inbounds nuw { i64, i64 }, ptr %6, i32 0, i32 0
  %11 = extractvalue { i64, i64 } %9, 0
  store i64 %11, ptr %10, align 8
  %12 = getelementptr inbounds nuw { i64, i64 }, ptr %6, i32 0, i32 1
  %13 = extractvalue { i64, i64 } %9, 1
  store i64 %13, ptr %12, align 8
  %14 = getelementptr inbounds nuw { i64, i64 }, ptr %6, i32 0, i32 0
  %15 = load i64, ptr %14, align 8
  %16 = getelementptr inbounds nuw { i64, i64 }, ptr %6, i32 0, i32 1
  %17 = load i64, ptr %16, align 8
  %18 = call { i64, i64 } @_ZN5folly8external8farmhashL10DebugTweakISt4pairImmEEET_S5_(i64 %15, i64 %17)
  %19 = getelementptr inbounds nuw { i64, i64 }, ptr %3, i32 0, i32 0
  %20 = extractvalue { i64, i64 } %18, 0
  store i64 %20, ptr %19, align 8
  %21 = getelementptr inbounds nuw { i64, i64 }, ptr %3, i32 0, i32 1
  %22 = extractvalue { i64, i64 } %18, 1
  store i64 %22, ptr %21, align 8
  %23 = load { i64, i64 }, ptr %3, align 8
  ret { i64, i64 } %23
}