; Function Attrs: mustprogress nofree norecurse nosync nounwind willreturn memory(argmem: read) uwtable
define { i64, i64 } @_ZN5folly8external8farmhash7Hash128EPKcm(ptr noundef readonly captures(none) %0, i64 noundef %1) local_unnamed_addr #0 {
  %3 = icmp ugt i64 %1, 15
  br i1 %3, label %4, label %10

4:                                                ; preds = %2
  %5 = getelementptr inbounds nuw i8, ptr %0, i64 16
  %6 = add i64 %1, -16
  %.val10.i.i = load i64, ptr %0, align 1
  %7 = getelementptr inbounds nuw i8, ptr %0, i64 8
  %.val.i.i = load i64, ptr %7, align 1
  %8 = add i64 %.val.i.i, -4348849565147123417
  %9 = tail call { i64, i64 } @_ZN5folly8external8farmhash10farmhashcc19CityHash128WithSeedEPKcmSt4pairImmE(ptr noundef nonnull readonly %5, i64 noundef %6, i64 %.val10.i.i, i64 %8)
  br label %_ZN5folly8external8farmhash10farmhashcc14Fingerprint128EPKcm.exit

10:                                               ; preds = %2
  %11 = tail call { i64, i64 } @_ZN5folly8external8farmhash10farmhashcc19CityHash128WithSeedEPKcmSt4pairImmE(ptr noundef readonly %0, i64 noundef %1, i64 -4348849565147123417, i64 -5435081209227447693)
  br label %_ZN5folly8external8farmhash10farmhashcc14Fingerprint128EPKcm.exit

_ZN5folly8external8farmhash10farmhashcc14Fingerprint128EPKcm.exit: ; preds = %4, %10
  %.pn.i.i = phi { i64, i64 } [ %9, %4 ], [ %11, %10 ]
  ret { i64, i64 } %.pn.i.i
}